target datalayout = "e-m:e-p270:32:32-p271:32:32-p272:64:64-i64:64-i128:128-f80:128-n8:16:32:64-S128"
target triple = "x86_64-pc-linux-gnu"

%struct.VP8LEncoder = type { ptr, ptr, ptr, i32, ptr, ptr, ptr, i64, i32, i32, i32, i32, i32, i32, i32, i32, i32, i32, [256 x i32], [256 x i32], [4 x %struct.VP8LBackwardRefs], %struct.VP8LHashChain }
%struct.VP8LBackwardRefs = type { i32, i32, ptr, ptr, ptr, ptr }
%struct.VP8LHashChain = type { ptr, i32 }

; Function Attrs: nounwind uwtable
define internal void @ClearTransformBuffer(ptr noundef %0) #0 {
  %2 = alloca ptr, align 8
  store ptr %0, ptr %2, align 8, !tbaa !10
  %3 = load ptr, ptr %2, align 8, !tbaa !10
  %4 = getelementptr inbounds nuw %struct.VP8LEncoder, ptr %3, i32 0, i32 6
  %5 = load ptr, ptr %4, align 8, !tbaa !113
  call void @WebPSafeFree(ptr noundef %5)
  %6 = load ptr, ptr %2, align 8, !tbaa !10
  %7 = getelementptr inbounds nuw %struct.VP8LEncoder, ptr %6, i32 0, i32 6
  store ptr null, ptr %7, align 8, !tbaa !113
  %8 = load ptr, ptr %2, align 8, !tbaa !10
  %9 = getelementptr inbounds nuw %struct.VP8LEncoder, ptr %8, i32 0, i32 7
  store i64 0, ptr %9, align 8, !tbaa !114
  ret void
}

; Function Attrs: inlinehint nounwind uwtable
define internal i32 @VP8LSubSampleSize(i32 noundef %0, i32 noundef %1) #3 {
  %3 = alloca i32, align 4
  %4 = alloca i32, align 4
  store i32 %0, ptr %3, align 4, !tbaa !11
  store i32 %1, ptr %4, align 4, !tbaa !11
  %5 = load i32, ptr %3, align 4, !tbaa !11
  %6 = load i32, ptr %4, align 4, !tbaa !11
  %7 = shl i32 1, %6
  %8 = add i32 %5, %7
  %9 = sub i32 %8, 1
  %10 = load i32, ptr %4, align 4, !tbaa !11
  %11 = lshr i32 %9, %10
  ret i32 %11
}

; Function Attrs: nounwind uwtable
define internal i32 @AllocateTransformBuffer(ptr noundef %0, i32 noundef %1, i32 noundef %2) #0 {
  %4 = alloca i32, align 4
  %5 = alloca ptr, align 8
  %6 = alloca i32, align 4
  %7 = alloca i32, align 4
  %8 = alloca i64, align 8
  %9 = alloca i64, align 8
  %10 = alloca i64, align 8
  %11 = alloca i64, align 8
  %12 = alloca i64, align 8
  %13 = alloca ptr, align 8
  %14 = alloca i32, align 4
  store ptr %0, ptr %5, align 8, !tbaa !10
  store i32 %1, ptr %6, align 4, !tbaa !11
  store i32 %2, ptr %7, align 4, !tbaa !11
  call void @llvm.lifetime.start.p0(i64 8, ptr %8) #7
  %15 = load i32, ptr %6, align 4, !tbaa !11
  %16 = sext i32 %15 to i64
  %17 = load i32, ptr %7, align 4, !tbaa !11
  %18 = sext i32 %17 to i64
  %19 = mul i64 %16, %18
  store i64 %19, ptr %8, align 8, !tbaa !79
  call void @llvm.lifetime.start.p0(i64 8, ptr %9) #7
  %20 = load ptr, ptr %5, align 8, !tbaa !10
  %21 = getelementptr inbounds nuw %struct.VP8LEncoder, ptr %20, i32 0, i32 15
  %22 = load i32, ptr %21, align 4, !tbaa !84
  %23 = icmp ne i32 %22, 0
  br i1 %23, label %24, label %36

24:                                               ; preds = %3
  %25 = load i32, ptr %6, align 4, !tbaa !11
  %26 = add nsw i32 %25, 1
  %27 = mul nsw i32 %26, 2
  %28 = sext i32 %27 to i64
  %29 = load i32, ptr %6, align 4, !tbaa !11
  %30 = mul nsw i32 %29, 2
  %31 = sext i32 %30 to i64
  %32 = add i64 %31, 4
  %33 = sub i64 %32, 1
  %34 = udiv i64 %33, 4
  %35 = add i64 %28, %34
  br label %37

36:                                               ; preds = %3
  br label %37

37:                                               ; preds = %36, %24
  %38 = phi i64 [ %35, %24 ], [ 0, %36 ]
  store i64 %38, ptr %9, align 8, !tbaa !79
  call void @llvm.lifetime.start.p0(i64 8, ptr %10) #7
  %39 = load ptr, ptr %5, align 8, !tbaa !10
  %40 = getelementptr inbounds nuw %struct.VP8LEncoder, ptr %39, i32 0, i32 15
  %41 = load i32, ptr %40, align 4, !tbaa !84
  %42 = icmp ne i32 %41, 0
  br i1 %42, label %48, label %43

43:                                               ; preds = %37
  %44 = load ptr, ptr %5, align 8, !tbaa !10
  %45 = getelementptr inbounds nuw %struct.VP8LEncoder, ptr %44, i32 0, i32 13
  %46 = load i32, ptr %45, align 4, !tbaa !85
  %47 = icmp ne i32 %46, 0
  br i1 %47, label %48, label %56

48:                                               ; preds = %43, %37
  %49 = load i32, ptr %6, align 4, !tbaa !11
  %50 = call i32 @VP8LSubSampleSize(i32 noundef %49, i32 noundef 2)
  %51 = zext i32 %50 to i64
  %52 = load i32, ptr %7, align 4, !tbaa !11
  %53 = call i32 @VP8LSubSampleSize(i32 noundef %52, i32 noundef 2)
  %54 = zext i32 %53 to i64
  %55 = mul i64 %51, %54
  br label %57

56:                                               ; preds = %43
  br label %57

57:                                               ; preds = %56, %48
  %58 = phi i64 [ %55, %48 ], [ 0, %56 ]
  store i64 %58, ptr %10, align 8, !tbaa !79
  call void @llvm.lifetime.start.p0(i64 8, ptr %11) #7
  store i64 8, ptr %11, align 8, !tbaa !79
  call void @llvm.lifetime.start.p0(i64 8, ptr %12) #7
  %59 = load i64, ptr %8, align 8, !tbaa !79
  %60 = add i64 %59, 8
  %61 = load i64, ptr %9, align 8, !tbaa !79
  %62 = add i64 %60, %61
  %63 = add i64 %62, 8
  %64 = load i64, ptr %10, align 8, !tbaa !79
  %65 = add i64 %63, %64
  store i64 %65, ptr %12, align 8, !tbaa !79
  call void @llvm.lifetime.start.p0(i64 8, ptr %13) #7
  %66 = load ptr, ptr %5, align 8, !tbaa !10
  %67 = getelementptr inbounds nuw %struct.VP8LEncoder, ptr %66, i32 0, i32 6
  %68 = load ptr, ptr %67, align 8, !tbaa !113
  store ptr %68, ptr %13, align 8, !tbaa !61
  %69 = load ptr, ptr %13, align 8, !tbaa !61
  %70 = icmp eq ptr %69, null
  br i1 %70, label %77, label %71

71:                                               ; preds = %57
  %72 = load i64, ptr %12, align 8, !tbaa !79
  %73 = load ptr, ptr %5, align 8, !tbaa !10
  %74 = getelementptr inbounds nuw %struct.VP8LEncoder, ptr %73, i32 0, i32 7
  %75 = load i64, ptr %74, align 8, !tbaa !114
  %76 = icmp ugt i64 %72, %75
  br i1 %76, label %77, label %97

77:                                               ; preds = %71, %57
  %78 = load ptr, ptr %5, align 8, !tbaa !10
  call void @ClearTransformBuffer(ptr noundef %78)
  %79 = load i64, ptr %12, align 8, !tbaa !79
  %80 = call ptr @WebPSafeMalloc(i64 noundef %79, i64 noundef 4)
  store ptr %80, ptr %13, align 8, !tbaa !61
  %81 = load ptr, ptr %13, align 8, !tbaa !61
  %82 = icmp eq ptr %81, null
  br i1 %82, label %83, label %88

83:                                               ; preds = %77
  %84 = load ptr, ptr %5, align 8, !tbaa !10
  %85 = getelementptr inbounds nuw %struct.VP8LEncoder, ptr %84, i32 0, i32 1
  %86 = load ptr, ptr %85, align 8, !tbaa !58
  %87 = call i32 @WebPEncodingSetError(ptr noundef %86, i32 noundef 1)
  store i32 %87, ptr %4, align 4
  store i32 1, ptr %14, align 4
  br label %124

88:                                               ; preds = %77
  %89 = load ptr, ptr %13, align 8, !tbaa !61
  %90 = load ptr, ptr %5, align 8, !tbaa !10
  %91 = getelementptr inbounds nuw %struct.VP8LEncoder, ptr %90, i32 0, i32 6
  store ptr %89, ptr %91, align 8, !tbaa !113
  %92 = load i64, ptr %12, align 8, !tbaa !79
  %93 = load ptr, ptr %5, align 8, !tbaa !10
  %94 = getelementptr inbounds nuw %struct.VP8LEncoder, ptr %93, i32 0, i32 7
  store i64 %92, ptr %94, align 8, !tbaa !114
  %95 = load ptr, ptr %5, align 8, !tbaa !10
  %96 = getelementptr inbounds nuw %struct.VP8LEncoder, ptr %95, i32 0, i32 3
  store i32 0, ptr %96, align 8, !tbaa !59
  br label %97

97:                                               ; preds = %88, %71
  %98 = load ptr, ptr %13, align 8, !tbaa !61
  %99 = load ptr, ptr %5, align 8, !tbaa !10
  %100 = getelementptr inbounds nuw %struct.VP8LEncoder, ptr %99, i32 0, i32 2
  store ptr %98, ptr %100, align 8, !tbaa !88
  %101 = load ptr, ptr %13, align 8, !tbaa !61
  %102 = load i64, ptr %8, align 8, !tbaa !79
  %103 = getelementptr inbounds nuw i32, ptr %101, i64 %102
  %104 = ptrtoint ptr %103 to i64
  %105 = add i64 %104, 31
  %106 = and i64 %105, -32
  %107 = inttoptr i64 %106 to ptr
  store ptr %107, ptr %13, align 8, !tbaa !61
  %108 = load ptr, ptr %13, align 8, !tbaa !61
  %109 = load ptr, ptr %5, align 8, !tbaa !10
  %110 = getelementptr inbounds nuw %struct.VP8LEncoder, ptr %109, i32 0, i32 4
  store ptr %108, ptr %110, align 8, !tbaa !122
  %111 = load ptr, ptr %13, align 8, !tbaa !61
  %112 = load i64, ptr %9, align 8, !tbaa !79
  %113 = getelementptr inbounds nuw i32, ptr %111, i64 %112
  %114 = ptrtoint ptr %113 to i64
  %115 = add i64 %114, 31
  %116 = and i64 %115, -32
  %117 = inttoptr i64 %116 to ptr
  store ptr %117, ptr %13, align 8, !tbaa !61
  %118 = load ptr, ptr %13, align 8, !tbaa !61
  %119 = load ptr, ptr %5, align 8, !tbaa !10
  %120 = getelementptr inbounds nuw %struct.VP8LEncoder, ptr %119, i32 0, i32 5
  store ptr %118, ptr %120, align 8, !tbaa !123
  %121 = load i32, ptr %6, align 4, !tbaa !11
  %122 = load ptr, ptr %5, align 8, !tbaa !10
  %123 = getelementptr inbounds nuw %struct.VP8LEncoder, ptr %122, i32 0, i32 8
  store i32 %121, ptr %123, align 8, !tbaa !89
  store i32 1, ptr %4, align 4
  store i32 1, ptr %14, align 4
  br label %124

124:                                              ; preds = %97, %83
  call void @llvm.lifetime.end.p0(i64 8, ptr %13) #7
  call void @llvm.lifetime.end.p0(i64 8, ptr %12) #7
  call void @llvm.lifetime.end.p0(i64 8, ptr %11) #7
  call void @llvm.lifetime.end.p0(i64 8, ptr %10) #7
  call void @llvm.lifetime.end.p0(i64 8, ptr %9) #7
  call void @llvm.lifetime.end.p0(i64 8, ptr %8) #7
  %125 = load i32, ptr %4, align 4
  ret i32 %125
}