; Function Attrs: nounwind uwtable
define internal fastcc i32 @AllocateTransformBuffer(ptr noundef captures(none) %0, i32 noundef %1, i32 noundef %2) unnamed_addr #0 {
  %4 = sext i32 %1 to i64
  %5 = sext i32 %2 to i64
  %6 = mul nsw i64 %5, %4
  %7 = getelementptr inbounds nuw i8, ptr %0, i64 92
  %8 = load i32, ptr %7, align 4, !tbaa !90
  %.not = icmp eq i32 %8, 0
  br i1 %.not, label %17, label %9

9:                                                ; preds = %3
  %10 = shl i32 %1, 1
  %11 = add i32 %10, 2
  %12 = sext i32 %11 to i64
  %13 = sext i32 %10 to i64
  %14 = add nsw i64 %13, 3
  %15 = lshr i64 %14, 2
  %16 = add nsw i64 %15, %12
  br label %20

17:                                               ; preds = %3
  %18 = getelementptr inbounds nuw i8, ptr %0, i64 84
  %19 = load i32, ptr %18, align 4, !tbaa !91
  %.not41 = icmp eq i32 %19, 0
  br i1 %.not41, label %29, label %20

20:                                               ; preds = %9, %17
  %21 = phi i64 [ 0, %17 ], [ %16, %9 ]
  %22 = add i32 %1, 3
  %23 = lshr i32 %22, 2
  %24 = zext nneg i32 %23 to i64
  %25 = add i32 %2, 3
  %26 = lshr i32 %25, 2
  %27 = zext nneg i32 %26 to i64
  %28 = mul nuw nsw i64 %27, %24
  br label %29

29:                                               ; preds = %17, %20
  %30 = phi i64 [ %21, %20 ], [ 0, %17 ]
  %31 = phi i64 [ %28, %20 ], [ 0, %17 ]
  %32 = add nsw i64 %6, 16
  %33 = add i64 %32, %30
  %34 = add i64 %33, %31
  %35 = getelementptr inbounds nuw i8, ptr %0, i64 48
  %36 = load ptr, ptr %35, align 8, !tbaa !18
  %37 = icmp eq ptr %36, null
  br i1 %37, label %42, label %38

38:                                               ; preds = %29
  %39 = getelementptr inbounds nuw i8, ptr %0, i64 56
  %40 = load i64, ptr %39, align 8, !tbaa !148
  %41 = icmp ugt i64 %34, %40
  br i1 %41, label %42, label %52

42:                                               ; preds = %38, %29
  tail call void @WebPSafeFree(ptr noundef %36) #8
  tail call void @llvm.memset.p0.i64(ptr noundef nonnull align 8 dereferenceable(16) %35, i8 0, i64 16, i1 false)
  %43 = tail call ptr @WebPSafeMalloc(i64 noundef %34, i64 noundef 4) #8
  %44 = icmp eq ptr %43, null
  br i1 %44, label %45, label %49

45:                                               ; preds = %42
  %46 = getelementptr inbounds nuw i8, ptr %0, i64 8
  %47 = load ptr, ptr %46, align 8, !tbaa !14
  %48 = tail call i32 @WebPEncodingSetError(ptr noundef %47, i32 noundef 1) #8
  br label %67

49:                                               ; preds = %42
  store ptr %43, ptr %35, align 8, !tbaa !18
  %50 = getelementptr inbounds nuw i8, ptr %0, i64 56
  store i64 %34, ptr %50, align 8, !tbaa !148
  %51 = getelementptr inbounds nuw i8, ptr %0, i64 24
  store i32 0, ptr %51, align 8, !tbaa !15
  br label %52

52:                                               ; preds = %49, %38
  %.0 = phi ptr [ %43, %49 ], [ %36, %38 ]
  %53 = getelementptr inbounds nuw i8, ptr %0, i64 16
  store ptr %.0, ptr %53, align 8, !tbaa !94
  %54 = getelementptr inbounds nuw i32, ptr %.0, i64 %6
  %55 = ptrtoint ptr %54 to i64
  %56 = add i64 %55, 31
  %57 = and i64 %56, -32
  %58 = inttoptr i64 %57 to ptr
  %59 = getelementptr inbounds nuw i8, ptr %0, i64 32
  store ptr %58, ptr %59, align 8, !tbaa !114
  %60 = getelementptr inbounds nuw i32, ptr %58, i64 %30
  %61 = ptrtoint ptr %60 to i64
  %62 = add i64 %61, 31
  %63 = and i64 %62, -32
  %64 = inttoptr i64 %63 to ptr
  %65 = getelementptr inbounds nuw i8, ptr %0, i64 40
  store ptr %64, ptr %65, align 8, !tbaa !115
  %66 = getelementptr inbounds nuw i8, ptr %0, i64 64
  store i32 %1, ptr %66, align 8, !tbaa !97
  br label %67

67:                                               ; preds = %52, %45
  %.037 = phi i32 [ %48, %45 ], [ 1, %52 ]
  ret i32 %.037
}